(dp0
Vengine
p1
S'pdflatex'
p2
sVpackages
p3
c__builtin__
set
p4
((lp5
Vindex
p6
aVmathtools
p7
aVxcolor
p8
aVfancyhdr
p9
aVgeometry
p10
aVbiblatex
p11
aVhyperref
p12
aVsnotez
p13
aVamsmath
p14
aVamsthm
p15
aVtabularx
p16
aVurl
p17
aVgraphicx
p18
aVtodonotes
p19
aVamssymb
p20
atp21
Rp22
sVfiles_with_guttermarks
p23
g4
((lp24
V/Users/Em/m491Draft/draftMath491/SC1.tex
p25
aV/Users/Em/m491Draft/draftMath491/./title.tex
p26
aV/Users/Em/m491Draft/draftMath491/SA2.tex
p27
aS'main.tex'
p28
aV/Users/Em/m491Draft/draftMath491/SG6.tex
p29
aV/Users/Em/m491Draft/draftMath491/SG5.tex
p30
atp31
Rp32
sVsynctex
p33
I01
s.